target datalayout = "e-m:e-p270:32:32-p271:32:32-p272:64:64-i64:64-i128:128-f80:128-n8:16:32:64-S128"
target triple = "x86_64-pc-linux-gnu"

; Function Attrs: inlinehint nounwind uwtable
define internal void @strip_header(ptr noundef %0, ptr noundef %1, ptr noundef %2) #8 {
  %4 = alloca ptr, align 8
  %5 = alloca ptr, align 8
  %6 = alloca ptr, align 8
  %7 = alloca ptr, align 8
  %8 = alloca ptr, align 8
  %9 = alloca ptr, align 8
  %10 = alloca ptr, align 8
  %11 = alloca i64, align 8
  store ptr %0, ptr %4, align 8, !tbaa !9
  store ptr %1, ptr %5, align 8, !tbaa !9
  store ptr %2, ptr %6, align 8, !tbaa !9
  call void @llvm.lifetime.start.p0(i64 8, ptr %7) #15
  %12 = load ptr, ptr %5, align 8, !tbaa !9
  %13 = load ptr, ptr %6, align 8, !tbaa !9
  %14 = call ptr @strstr(ptr noundef %12, ptr noundef %13) #16
  store ptr %14, ptr %7, align 8, !tbaa !9
  %15 = load ptr, ptr %7, align 8, !tbaa !9
  %16 = icmp ne ptr %15, null
  br i1 %16, label %17, label %61

17:                                               ; preds = %3
  %18 = load ptr, ptr %7, align 8, !tbaa !9
  %19 = load ptr, ptr %5, align 8, !tbaa !9
  %20 = icmp eq ptr %18, %19
  br i1 %20, label %27, label %21

21:                                               ; preds = %17
  %22 = load ptr, ptr %7, align 8, !tbaa !9
  %23 = getelementptr inbounds i8, ptr %22, i64 -1
  %24 = load i8, ptr %23, align 1, !tbaa !17
  %25 = sext i8 %24 to i32
  %26 = icmp eq i32 %25, 10
  br i1 %26, label %27, label %61

27:                                               ; preds = %21, %17
  call void @llvm.lifetime.start.p0(i64 8, ptr %8) #15
  %28 = load ptr, ptr %4, align 8, !tbaa !9
  %29 = load ptr, ptr %7, align 8, !tbaa !9
  %30 = load ptr, ptr %5, align 8, !tbaa !9
  %31 = ptrtoint ptr %29 to i64
  %32 = ptrtoint ptr %30 to i64
  %33 = sub i64 %31, %32
  %34 = getelementptr inbounds i8, ptr %28, i64 %33
  store ptr %34, ptr %8, align 8, !tbaa !9
  call void @llvm.lifetime.start.p0(i64 8, ptr %9) #15
  %35 = load ptr, ptr %7, align 8, !tbaa !9
  %36 = call ptr @strchr(ptr noundef %35, i32 noundef 10) #16
  store ptr %36, ptr %9, align 8, !tbaa !9
  %37 = load ptr, ptr %9, align 8, !tbaa !9
  %38 = icmp ne ptr %37, null
  br i1 %38, label %39, label %57

39:                                               ; preds = %27
  call void @llvm.lifetime.start.p0(i64 8, ptr %10) #15
  %40 = load ptr, ptr %8, align 8, !tbaa !9
  %41 = load ptr, ptr %9, align 8, !tbaa !9
  %42 = load ptr, ptr %7, align 8, !tbaa !9
  %43 = ptrtoint ptr %41 to i64
  %44 = ptrtoint ptr %42 to i64
  %45 = sub i64 %43, %44
  %46 = getelementptr inbounds i8, ptr %40, i64 %45
  store ptr %46, ptr %10, align 8, !tbaa !9
  call void @llvm.lifetime.start.p0(i64 8, ptr %11) #15
  %47 = load ptr, ptr %9, align 8, !tbaa !9
  %48 = call i64 @strlen(ptr noundef %47) #16
  store i64 %48, ptr %11, align 8, !tbaa !28
  %49 = load ptr, ptr %7, align 8, !tbaa !9
  %50 = load ptr, ptr %9, align 8, !tbaa !9
  %51 = getelementptr inbounds i8, ptr %50, i64 1
  %52 = load i64, ptr %11, align 8, !tbaa !28
  call void @llvm.memmove.p0.p0.i64(ptr align 1 %49, ptr align 1 %51, i64 %52, i1 false)
  %53 = load ptr, ptr %8, align 8, !tbaa !9
  %54 = load ptr, ptr %10, align 8, !tbaa !9
  %55 = getelementptr inbounds i8, ptr %54, i64 1
  %56 = load i64, ptr %11, align 8, !tbaa !28
  call void @llvm.memmove.p0.p0.i64(ptr align 1 %53, ptr align 1 %55, i64 %56, i1 false)
  call void @llvm.lifetime.end.p0(i64 8, ptr %11) #15
  call void @llvm.lifetime.end.p0(i64 8, ptr %10) #15
  br label %60

57:                                               ; preds = %27
  %58 = load ptr, ptr %7, align 8, !tbaa !9
  store i8 0, ptr %58, align 1, !tbaa !17
  %59 = load ptr, ptr %8, align 8, !tbaa !9
  store i8 0, ptr %59, align 1, !tbaa !17
  br label %60

60:                                               ; preds = %57, %39
  call void @llvm.lifetime.end.p0(i64 8, ptr %9) #15
  call void @llvm.lifetime.end.p0(i64 8, ptr %8) #15
  br label %61

61:                                               ; preds = %60, %21, %3
  call void @llvm.lifetime.end.p0(i64 8, ptr %7) #15
  ret void
}