; Function Attrs: inlinehint mustprogress nofree nounwind willreturn memory(readwrite, inaccessiblemem: none) uwtable
define internal fastcc void @strip_header(ptr noundef captures(none) %0, ptr noundef %1, ptr noundef readonly captures(none) %2) unnamed_addr #6 {
  %4 = tail call ptr @strstr(ptr noundef nonnull dereferenceable(1) %1, ptr noundef nonnull dereferenceable(1) %2) #19
  %.not = icmp eq ptr %4, null
  br i1 %.not, label %25, label %5

5:                                                ; preds = %3
  %6 = icmp eq ptr %4, %1
  br i1 %6, label %11, label %7

7:                                                ; preds = %5
  %8 = getelementptr inbounds i8, ptr %4, i64 -1
  %9 = load i8, ptr %8, align 1, !tbaa !4
  %10 = icmp eq i8 %9, 10
  br i1 %10, label %11, label %25

11:                                               ; preds = %7, %5
  %12 = ptrtoint ptr %4 to i64
  %13 = ptrtoint ptr %1 to i64
  %14 = sub i64 %12, %13
  %15 = getelementptr inbounds i8, ptr %0, i64 %14
  %16 = tail call ptr @strchr(ptr noundef nonnull dereferenceable(1) %4, i32 noundef 10) #19
  %.not23 = icmp eq ptr %16, null
  br i1 %.not23, label %24, label %17

17:                                               ; preds = %11
  %18 = ptrtoint ptr %16 to i64
  %19 = sub i64 %18, %12
  %20 = getelementptr inbounds i8, ptr %15, i64 %19
  %21 = tail call i64 @strlen(ptr noundef nonnull dereferenceable(1) %16) #19
  %22 = getelementptr inbounds nuw i8, ptr %16, i64 1
  tail call void @llvm.memmove.p0.p0.i64(ptr nonnull align 1 %4, ptr nonnull align 1 %22, i64 %21, i1 false)
  %23 = getelementptr inbounds nuw i8, ptr %20, i64 1
  tail call void @llvm.memmove.p0.p0.i64(ptr align 1 %15, ptr nonnull align 1 %23, i64 %21, i1 false)
  br label %25

24:                                               ; preds = %11
  store i8 0, ptr %4, align 1, !tbaa !4
  store i8 0, ptr %15, align 1, !tbaa !4
  br label %25

25:                                               ; preds = %17, %24, %7, %3
  ret void
}